; ModuleID = 'bench/linux/original/dns_resolve.ll'
source_filename = "bench/linux/original/dns_resolve.ll"
target datalayout = "e-m:e-p270:32:32-p271:32:32-p272:64:64-i64:64-i128:128-f80:128-n8:16:32:64-S128"
target triple = "x86_64-unknown-linux-gnu"

; Function Attrs: fn_ret_thunk_extern nounwind null_pointer_is_valid
define dso_local i64 @nfs_dns_resolve_name(ptr noundef %0, ptr noundef %1, i64 noundef %2, ptr noundef %3, i64 noundef %4) local_unnamed_addr #0 align 16 {
  %6 = alloca ptr, align 8
  call void @llvm.lifetime.start.p0(i64 8, ptr nonnull %6) #3
  store ptr null, ptr %6, align 8
  %7 = call i32 @dns_query(ptr noundef %0, ptr noundef null, ptr noundef %1, i64 noundef %2, ptr noundef null, ptr noundef nonnull %6, ptr noundef null, i1 noundef zeroext false) #3
  %8 = icmp sgt i32 %7, 0
  br i1 %8, label %9, label %13

9:                                                ; preds = %5
  %10 = load ptr, ptr %6, align 8
  %11 = zext nneg i32 %7 to i64
  %12 = call i64 @rpc_pton(ptr noundef %0, ptr noundef %10, i64 noundef %11, ptr noundef %3, i64 noundef %4) #3
  br label %13

13:                                               ; preds = %9, %5
  %14 = phi i64 [ %12, %9 ], [ -3, %5 ]
  %15 = load ptr, ptr %6, align 8
  call void @kfree(ptr noundef %15) #3
  call void @llvm.lifetime.end.p0(i64 8, ptr nonnull %6) #3
  ret i64 %14
}

; Function Attrs: mustprogress nocallback nofree nosync nounwind willreturn memory(argmem: readwrite)
declare void @llvm.lifetime.start.p0(i64 immarg, ptr nocapture) #1

; Function Attrs: null_pointer_is_valid
declare dso_local i32 @dns_query(ptr noundef, ptr noundef, ptr noundef, i64 noundef, ptr noundef, ptr noundef, ptr noundef, i1 noundef zeroext) local_unnamed_addr #2

; Function Attrs: null_pointer_is_valid
declare dso_local i64 @rpc_pton(ptr noundef, ptr noundef, i64 noundef, ptr noundef, i64 noundef) local_unnamed_addr #2

; Function Attrs: null_pointer_is_valid
declare dso_local void @kfree(ptr noundef) local_unnamed_addr #2

; Function Attrs: mustprogress nocallback nofree nosync nounwind willreturn memory(argmem: readwrite)
declare void @llvm.lifetime.end.p0(i64 immarg, ptr nocapture) #1


!llvm.module.flags = !{!0, !1, !2, !3, !4}

!0 = !{i32 1, !"wchar_size", i32 2}
!1 = !{i32 8, !"cf-protection-branch", i32 1}
!2 = !{i32 4, !"function_return_thunk_extern", i32 1}
!3 = !{i32 4, !"indirect_branch_cs_prefix", i32 1}
!4 = !{i32 4, !"SkipRaxSetup", i32 1}
